target datalayout = "e-m:e-p270:32:32-p271:32:32-p272:64:64-i64:64-i128:128-f80:128-n8:16:32:64-S128"
target triple = "x86_64-pc-linux-gnu"

%struct.jpeg_decompress_struct = type { ptr, ptr, ptr, ptr, i32, i32, ptr, i32, i32, i32, i32, i32, i32, i32, double, i32, i32, i32, i32, i32, i32, i32, i32, i32, i32, i32, i32, i32, i32, i32, i32, i32, i32, ptr, i32, i32, i32, i32, i32, ptr, [4 x ptr], [4 x ptr], [4 x ptr], i32, ptr, i32, i32, i32, [16 x i8], [16 x i8], [16 x i8], i32, i32, i8, i8, i8, i16, i16, i32, i8, i32, ptr, i32, i32, i32, i32, i32, ptr, i32, [4 x ptr], i32, i32, i32, [10 x i32], i32, i32, i32, i32, i32, ptr, i32, i32, ptr, ptr, ptr, ptr, ptr, ptr, ptr, ptr, ptr, ptr, ptr }
%struct.JPEGReadContext = type { %struct.jpeg_source_mgr, ptr, i64 }
%struct.jpeg_source_mgr = type { ptr, i64, ptr, ptr, ptr, ptr, ptr }

; Function Attrs: nounwind uwtable
define internal void @ContextInit(ptr noundef %0) #0 {
  %2 = alloca ptr, align 8
  %3 = alloca ptr, align 8
  store ptr %0, ptr %2, align 8, !tbaa !68
  call void @llvm.lifetime.start.p0(i64 8, ptr %3) #10
  %4 = load ptr, ptr %2, align 8, !tbaa !68
  %5 = getelementptr inbounds nuw %struct.jpeg_decompress_struct, ptr %4, i32 0, i32 6
  %6 = load ptr, ptr %5, align 8, !tbaa !71
  store ptr %6, ptr %3, align 8, !tbaa !70
  %7 = load ptr, ptr %3, align 8, !tbaa !70
  %8 = getelementptr inbounds nuw %struct.JPEGReadContext, ptr %7, i32 0, i32 1
  %9 = load ptr, ptr %8, align 8, !tbaa !17
  %10 = load ptr, ptr %3, align 8, !tbaa !70
  %11 = getelementptr inbounds nuw %struct.JPEGReadContext, ptr %10, i32 0, i32 0
  %12 = getelementptr inbounds nuw %struct.jpeg_source_mgr, ptr %11, i32 0, i32 0
  store ptr %9, ptr %12, align 8, !tbaa !78
  %13 = load ptr, ptr %3, align 8, !tbaa !70
  %14 = getelementptr inbounds nuw %struct.JPEGReadContext, ptr %13, i32 0, i32 2
  %15 = load i64, ptr %14, align 8, !tbaa !20
  %16 = load ptr, ptr %3, align 8, !tbaa !70
  %17 = getelementptr inbounds nuw %struct.JPEGReadContext, ptr %16, i32 0, i32 0
  %18 = getelementptr inbounds nuw %struct.jpeg_source_mgr, ptr %17, i32 0, i32 1
  store i64 %15, ptr %18, align 8, !tbaa !77
  call void @llvm.lifetime.end.p0(i64 8, ptr %3) #10
  ret void
}