; Function Attrs: mustprogress nofree norecurse nosync nounwind willreturn memory(readwrite, inaccessiblemem: none) uwtable
define internal void @ContextInit(ptr noundef readonly captures(none) %0) #10 {
  %2 = getelementptr inbounds nuw i8, ptr %0, i64 40
  %3 = load ptr, ptr %2, align 8, !tbaa !41
  %4 = getelementptr inbounds nuw i8, ptr %3, i64 56
  %5 = load ptr, ptr %4, align 8, !tbaa !11
  store ptr %5, ptr %3, align 8, !tbaa !87
  %6 = getelementptr inbounds nuw i8, ptr %3, i64 64
  %7 = load i64, ptr %6, align 8, !tbaa !15
  %8 = getelementptr inbounds nuw i8, ptr %3, i64 8
  store i64 %7, ptr %8, align 8, !tbaa !88
  ret void
}